target datalayout = "e-m:e-p270:32:32-p271:32:32-p272:64:64-i64:64-i128:128-f80:128-n8:16:32:64-S128"
target triple = "x86_64-pc-linux-gnu"

%struct.MetadataPayload = type { ptr, i64 }

; Function Attrs: nounwind uwtable
define internal i32 @WriteLE(ptr noundef %0, i32 noundef %1, i32 noundef %2) #0 {
  %4 = alloca ptr, align 8
  %5 = alloca i32, align 4
  %6 = alloca i32, align 4
  %7 = alloca [4 x i8], align 1
  %8 = alloca i32, align 4
  store ptr %0, ptr %4, align 8
  store i32 %1, ptr %5, align 4
  store i32 %2, ptr %6, align 4
  store i32 0, ptr %8, align 4
  br label %9

9:                                                ; preds = %22, %3
  %10 = load i32, ptr %8, align 4
  %11 = load i32, ptr %6, align 4
  %12 = icmp slt i32 %10, %11
  br i1 %12, label %13, label %25

13:                                               ; preds = %9
  %14 = load i32, ptr %5, align 4
  %15 = and i32 %14, 255
  %16 = trunc i32 %15 to i8
  %17 = load i32, ptr %8, align 4
  %18 = sext i32 %17 to i64
  %19 = getelementptr inbounds [4 x i8], ptr %7, i64 0, i64 %18
  store i8 %16, ptr %19, align 1
  %20 = load i32, ptr %5, align 4
  %21 = lshr i32 %20, 8
  store i32 %21, ptr %5, align 4
  br label %22

22:                                               ; preds = %13
  %23 = load i32, ptr %8, align 4
  %24 = add nsw i32 %23, 1
  store i32 %24, ptr %8, align 4
  br label %9, !llvm.loop !19

25:                                               ; preds = %9
  %26 = getelementptr inbounds [4 x i8], ptr %7, i64 0, i64 0
  %27 = load i32, ptr %6, align 4
  %28 = sext i32 %27 to i64
  %29 = load ptr, ptr %4, align 8
  %30 = call i64 @fwrite(ptr noundef %26, i64 noundef %28, i64 noundef 1, ptr noundef %29)
  %31 = icmp eq i64 %30, 1
  %32 = zext i1 %31 to i32
  ret i32 %32
}

; Function Attrs: nounwind uwtable
define internal i32 @WriteLE32(ptr noundef %0, i32 noundef %1) #0 {
  %3 = alloca ptr, align 8
  %4 = alloca i32, align 4
  store ptr %0, ptr %3, align 8
  store i32 %1, ptr %4, align 4
  %5 = load ptr, ptr %3, align 8
  %6 = load i32, ptr %4, align 4
  %7 = call i32 @WriteLE(ptr noundef %5, i32 noundef %6, i32 noundef 4)
  ret i32 %7
}

; Function Attrs: nounwind uwtable
define internal i32 @WriteMetadataChunk(ptr noundef %0, ptr noundef %1, ptr noundef %2) #0 {
  %4 = alloca ptr, align 8
  %5 = alloca ptr, align 8
  %6 = alloca ptr, align 8
  %7 = alloca i8, align 1
  %8 = alloca i64, align 8
  %9 = alloca i32, align 4
  store ptr %0, ptr %4, align 8
  store ptr %1, ptr %5, align 8
  store ptr %2, ptr %6, align 8
  store i8 0, ptr %7, align 1
  %10 = load ptr, ptr %6, align 8
  %11 = getelementptr inbounds %struct.MetadataPayload, ptr %10, i32 0, i32 1
  %12 = load i64, ptr %11, align 8
  %13 = and i64 %12, 1
  store i64 %13, ptr %8, align 8
  %14 = load ptr, ptr %5, align 8
  %15 = load ptr, ptr %4, align 8
  %16 = call i64 @fwrite(ptr noundef %14, i64 noundef 4, i64 noundef 1, ptr noundef %15)
  %17 = icmp eq i64 %16, 1
  %18 = zext i1 %17 to i32
  store i32 %18, ptr %9, align 4
  %19 = load i32, ptr %9, align 4
  %20 = icmp ne i32 %19, 0
  br i1 %20, label %21, label %29

21:                                               ; preds = %3
  %22 = load ptr, ptr %4, align 8
  %23 = load ptr, ptr %6, align 8
  %24 = getelementptr inbounds %struct.MetadataPayload, ptr %23, i32 0, i32 1
  %25 = load i64, ptr %24, align 8
  %26 = trunc i64 %25 to i32
  %27 = call i32 @WriteLE32(ptr noundef %22, i32 noundef %26)
  %28 = icmp ne i32 %27, 0
  br label %29

29:                                               ; preds = %21, %3
  %30 = phi i1 [ false, %3 ], [ %28, %21 ]
  %31 = zext i1 %30 to i32
  store i32 %31, ptr %9, align 4
  %32 = load i32, ptr %9, align 4
  %33 = icmp ne i32 %32, 0
  br i1 %33, label %34, label %44

34:                                               ; preds = %29
  %35 = load ptr, ptr %6, align 8
  %36 = getelementptr inbounds %struct.MetadataPayload, ptr %35, i32 0, i32 0
  %37 = load ptr, ptr %36, align 8
  %38 = load ptr, ptr %6, align 8
  %39 = getelementptr inbounds %struct.MetadataPayload, ptr %38, i32 0, i32 1
  %40 = load i64, ptr %39, align 8
  %41 = load ptr, ptr %4, align 8
  %42 = call i64 @fwrite(ptr noundef %37, i64 noundef %40, i64 noundef 1, ptr noundef %41)
  %43 = icmp eq i64 %42, 1
  br label %44

44:                                               ; preds = %34, %29
  %45 = phi i1 [ false, %29 ], [ %43, %34 ]
  %46 = zext i1 %45 to i32
  store i32 %46, ptr %9, align 4
  %47 = load i32, ptr %9, align 4
  %48 = icmp ne i32 %47, 0
  br i1 %48, label %49, label %56

49:                                               ; preds = %44
  %50 = load i64, ptr %8, align 8
  %51 = load i64, ptr %8, align 8
  %52 = load ptr, ptr %4, align 8
  %53 = call i64 @fwrite(ptr noundef %7, i64 noundef %50, i64 noundef %51, ptr noundef %52)
  %54 = load i64, ptr %8, align 8
  %55 = icmp eq i64 %53, %54
  br label %56

56:                                               ; preds = %49, %44
  %57 = phi i1 [ false, %44 ], [ %55, %49 ]
  %58 = zext i1 %57 to i32
  ret i32 %58
}