; Function Attrs: nofree nounwind uwtable
define internal fastcc range(i32 0, 2) i32 @WriteMetadataChunk(ptr nocapture noundef %0, ptr nocapture noundef %1, ptr nocapture noundef readonly %2) unnamed_addr #3 {
  %4 = alloca [4 x i8], align 1
  %5 = alloca i8, align 1
  store i8 0, ptr %5, align 1
  %6 = getelementptr inbounds i8, ptr %2, i64 8
  %7 = load i64, ptr %6, align 8
  %8 = and i64 %7, 1
  %9 = tail call i64 @fwrite(ptr noundef %1, i64 noundef 4, i64 noundef 1, ptr noundef %0)
  %10 = icmp eq i64 %9, 1
  br i1 %10, label %11, label %.critedge14

11:                                               ; preds = %3
  %12 = load i64, ptr %6, align 8
  %13 = trunc i64 %12 to i32
  call void @llvm.lifetime.start.p0(i64 4, ptr nonnull %4)
  br label %.lr.ph.i.i

.lr.ph.i.i:                                       ; preds = %.lr.ph.i.i, %11
  %indvars.iv.i.i = phi i64 [ %indvars.iv.next.i.i, %.lr.ph.i.i ], [ 0, %11 ]
  %.079.i.i = phi i32 [ %16, %.lr.ph.i.i ], [ %13, %11 ]
  %14 = trunc i32 %.079.i.i to i8
  %15 = getelementptr inbounds [4 x i8], ptr %4, i64 0, i64 %indvars.iv.i.i
  store i8 %14, ptr %15, align 1
  %16 = lshr i32 %.079.i.i, 8
  %indvars.iv.next.i.i = add nuw nsw i64 %indvars.iv.i.i, 1
  %exitcond.not.i.i = icmp eq i64 %indvars.iv.next.i.i, 4
  br i1 %exitcond.not.i.i, label %WriteLE32.exit, label %.lr.ph.i.i, !llvm.loop !17

WriteLE32.exit:                                   ; preds = %.lr.ph.i.i
  %17 = call i64 @fwrite(ptr noundef nonnull %4, i64 noundef 4, i64 noundef 1, ptr noundef %0)
  %18 = icmp eq i64 %17, 1
  call void @llvm.lifetime.end.p0(i64 4, ptr nonnull %4)
  br i1 %18, label %.critedge, label %.critedge14

.critedge:                                        ; preds = %WriteLE32.exit
  %19 = load ptr, ptr %2, align 8
  %20 = load i64, ptr %6, align 8
  %21 = tail call i64 @fwrite(ptr noundef %19, i64 noundef %20, i64 noundef 1, ptr noundef %0)
  %22 = icmp eq i64 %21, 1
  br i1 %22, label %23, label %.critedge14

23:                                               ; preds = %.critedge
  %24 = call i64 @fwrite(ptr noundef nonnull %5, i64 noundef %8, i64 noundef %8, ptr noundef %0)
  %25 = icmp eq i64 %24, %8
  %26 = zext i1 %25 to i32
  br label %.critedge14

.critedge14:                                      ; preds = %WriteLE32.exit, %3, %23, %.critedge
  %27 = phi i32 [ 0, %.critedge ], [ %26, %23 ], [ 0, %3 ], [ 0, %WriteLE32.exit ]
  ret i32 %27
}